target datalayout = "e-m:e-p270:32:32-p271:32:32-p272:64:64-i64:64-i128:128-f80:128-n8:16:32:64-S128"
target triple = "x86_64-pc-linux-gnu"

%class.dtNavMeshQuery = type { ptr, %"struct.dtNavMeshQuery::dtQueryData", ptr, ptr, ptr }
%"struct.dtNavMeshQuery::dtQueryData" = type { i32, ptr, float, i32, i32, [3 x float], [3 x float], ptr, i32, float }
%struct.dtMeshTile = type { i32, i32, ptr, ptr, ptr, ptr, ptr, ptr, ptr, ptr, ptr, ptr, i32, i32, ptr }
%struct.dtPoly = type { i32, [6 x i16], [6 x i16], i16, i8, i8 }

@.str = private unnamed_addr constant [6 x i8] c"m_nav\00", align 1
@.str.1 = private unnamed_addr constant [148 x i8] c"generated/home/dtcxzyw/WorkSpace/Projects/compilers/llvm-opt-benchmark/bench/recastnavigation/recastnavigation/Detour/Source/DetourNavMeshQuery.cpp\00", align 1

; Function Attrs: mustprogress nounwind uwtable
define linkonce_odr noundef zeroext i1 @_ZSt8isfinitef(float noundef %0) #0 comdat {
  %2 = alloca float, align 4
  store float %0, ptr %2, align 4
  %3 = load float, ptr %2, align 4
  %4 = call i1 @llvm.is.fpclass.f32(float %3, i32 504)
  ret i1 %4
}

; Function Attrs: mustprogress uwtable
define linkonce_odr noundef zeroext i1 @_Z14dtMathIsfinitef(float noundef %0) #1 comdat {
  %2 = alloca float, align 4
  store float %0, ptr %2, align 4
  %3 = load float, ptr %2, align 4
  %4 = call noundef zeroext i1 @_ZSt8isfinitef(float noundef %3)
  ret i1 %4
}

; Function Attrs: mustprogress nounwind uwtable
define linkonce_odr void @_Z7dtVlerpPfPKfS1_f(ptr noundef %0, ptr noundef %1, ptr noundef %2, float noundef %3) #0 comdat {
  %5 = alloca ptr, align 8
  %6 = alloca ptr, align 8
  %7 = alloca ptr, align 8
  %8 = alloca float, align 4
  store ptr %0, ptr %5, align 8
  store ptr %1, ptr %6, align 8
  store ptr %2, ptr %7, align 8
  store float %3, ptr %8, align 4
  %9 = load ptr, ptr %6, align 8
  %10 = getelementptr inbounds float, ptr %9, i64 0
  %11 = load float, ptr %10, align 4
  %12 = load ptr, ptr %7, align 8
  %13 = getelementptr inbounds float, ptr %12, i64 0
  %14 = load float, ptr %13, align 4
  %15 = load ptr, ptr %6, align 8
  %16 = getelementptr inbounds float, ptr %15, i64 0
  %17 = load float, ptr %16, align 4
  %18 = fsub float %14, %17
  %19 = load float, ptr %8, align 4
  %20 = call float @llvm.fmuladd.f32(float %18, float %19, float %11)
  %21 = load ptr, ptr %5, align 8
  %22 = getelementptr inbounds float, ptr %21, i64 0
  store float %20, ptr %22, align 4
  %23 = load ptr, ptr %6, align 8
  %24 = getelementptr inbounds float, ptr %23, i64 1
  %25 = load float, ptr %24, align 4
  %26 = load ptr, ptr %7, align 8
  %27 = getelementptr inbounds float, ptr %26, i64 1
  %28 = load float, ptr %27, align 4
  %29 = load ptr, ptr %6, align 8
  %30 = getelementptr inbounds float, ptr %29, i64 1
  %31 = load float, ptr %30, align 4
  %32 = fsub float %28, %31
  %33 = load float, ptr %8, align 4
  %34 = call float @llvm.fmuladd.f32(float %32, float %33, float %25)
  %35 = load ptr, ptr %5, align 8
  %36 = getelementptr inbounds float, ptr %35, i64 1
  store float %34, ptr %36, align 4
  %37 = load ptr, ptr %6, align 8
  %38 = getelementptr inbounds float, ptr %37, i64 2
  %39 = load float, ptr %38, align 4
  %40 = load ptr, ptr %7, align 8
  %41 = getelementptr inbounds float, ptr %40, i64 2
  %42 = load float, ptr %41, align 4
  %43 = load ptr, ptr %6, align 8
  %44 = getelementptr inbounds float, ptr %43, i64 2
  %45 = load float, ptr %44, align 4
  %46 = fsub float %42, %45
  %47 = load float, ptr %8, align 4
  %48 = call float @llvm.fmuladd.f32(float %46, float %47, float %39)
  %49 = load ptr, ptr %5, align 8
  %50 = getelementptr inbounds float, ptr %49, i64 2
  store float %48, ptr %50, align 4
  ret void
}

; Function Attrs: mustprogress nounwind uwtable
define linkonce_odr void @_Z7dtVcopyPfPKf(ptr noundef %0, ptr noundef %1) #0 comdat {
  %3 = alloca ptr, align 8
  %4 = alloca ptr, align 8
  store ptr %0, ptr %3, align 8
  store ptr %1, ptr %4, align 8
  %5 = load ptr, ptr %4, align 8
  %6 = getelementptr inbounds float, ptr %5, i64 0
  %7 = load float, ptr %6, align 4
  %8 = load ptr, ptr %3, align 8
  %9 = getelementptr inbounds float, ptr %8, i64 0
  store float %7, ptr %9, align 4
  %10 = load ptr, ptr %4, align 8
  %11 = getelementptr inbounds float, ptr %10, i64 1
  %12 = load float, ptr %11, align 4
  %13 = load ptr, ptr %3, align 8
  %14 = getelementptr inbounds float, ptr %13, i64 1
  store float %12, ptr %14, align 4
  %15 = load ptr, ptr %4, align 8
  %16 = getelementptr inbounds float, ptr %15, i64 2
  %17 = load float, ptr %16, align 4
  %18 = load ptr, ptr %3, align 8
  %19 = getelementptr inbounds float, ptr %18, i64 2
  store float %17, ptr %19, align 4
  ret void
}

; Function Attrs: mustprogress uwtable
define linkonce_odr noundef zeroext i1 @_Z11dtVisfinitePKf(ptr noundef %0) #1 comdat {
  %2 = alloca ptr, align 8
  %3 = alloca i8, align 1
  store ptr %0, ptr %2, align 8
  %4 = load ptr, ptr %2, align 8
  %5 = getelementptr inbounds float, ptr %4, i64 0
  %6 = load float, ptr %5, align 4
  %7 = call noundef zeroext i1 @_Z14dtMathIsfinitef(float noundef %6)
  br i1 %7, label %8, label %18

8:                                                ; preds = %1
  %9 = load ptr, ptr %2, align 8
  %10 = getelementptr inbounds float, ptr %9, i64 1
  %11 = load float, ptr %10, align 4
  %12 = call noundef zeroext i1 @_Z14dtMathIsfinitef(float noundef %11)
  br i1 %12, label %13, label %18

13:                                               ; preds = %8
  %14 = load ptr, ptr %2, align 8
  %15 = getelementptr inbounds float, ptr %14, i64 2
  %16 = load float, ptr %15, align 4
  %17 = call noundef zeroext i1 @_Z14dtMathIsfinitef(float noundef %16)
  br label %18

18:                                               ; preds = %13, %8, %1
  %19 = phi i1 [ false, %8 ], [ false, %1 ], [ %17, %13 ]
  %20 = zext i1 %19 to i8
  store i8 %20, ptr %3, align 1
  %21 = load i8, ptr %3, align 1
  %22 = trunc i8 %21 to i1
  ret i1 %22
}

; Function Attrs: mustprogress nounwind uwtable
define linkonce_odr noundef zeroext i1 @_Z14dtStatusFailedj(i32 noundef %0) #0 comdat {
  %2 = alloca i32, align 4
  store i32 %0, ptr %2, align 4
  %3 = load i32, ptr %2, align 4
  %4 = and i32 %3, -2147483648
  %5 = icmp ne i32 %4, 0
  ret i1 %5
}

; Function Attrs: mustprogress uwtable
define noundef i32 @_ZNK14dtNavMeshQuery26closestPointOnPolyBoundaryEjPKfPf(ptr noundef nonnull align 8 dereferenceable(104) %0, i32 noundef %1, ptr noundef %2, ptr noundef %3) #1 align 2 {
  %5 = alloca i32, align 4
  %6 = alloca ptr, align 8
  %7 = alloca i32, align 4
  %8 = alloca ptr, align 8
  %9 = alloca ptr, align 8
  %10 = alloca ptr, align 8
  %11 = alloca ptr, align 8
  %12 = alloca ptr, align 8
  %13 = alloca [18 x float], align 16
  %14 = alloca [6 x float], align 16
  %15 = alloca [6 x float], align 16
  %16 = alloca i32, align 4
  %17 = alloca i32, align 4
  %18 = alloca i8, align 1
  %19 = alloca float, align 4
  %20 = alloca i32, align 4
  %21 = alloca i32, align 4
  %22 = alloca ptr, align 8
  %23 = alloca ptr, align 8
  store ptr %0, ptr %6, align 8
  store i32 %1, ptr %7, align 4
  store ptr %2, ptr %8, align 8
  store ptr %3, ptr %9, align 8
  %24 = load ptr, ptr %6, align 8
  %25 = call noundef ptr @_Z21dtAssertFailGetCustomv()
  store ptr %25, ptr %10, align 8
  %26 = load ptr, ptr %10, align 8
  %27 = icmp eq ptr %26, null
  br i1 %27, label %28, label %29

28:                                               ; preds = %4
  br label %36

29:                                               ; preds = %4
  %30 = getelementptr inbounds %class.dtNavMeshQuery, ptr %24, i32 0, i32 0
  %31 = load ptr, ptr %30, align 8
  %32 = icmp ne ptr %31, null
  br i1 %32, label %35, label %33

33:                                               ; preds = %29
  %34 = load ptr, ptr %10, align 8
  call void %34(ptr noundef @.str, ptr noundef @.str.1, i32 noundef 538)
  br label %35

35:                                               ; preds = %33, %29
  br label %36

36:                                               ; preds = %35, %28
  store ptr null, ptr %11, align 8
  store ptr null, ptr %12, align 8
  %37 = getelementptr inbounds %class.dtNavMeshQuery, ptr %24, i32 0, i32 0
  %38 = load ptr, ptr %37, align 8
  %39 = load i32, ptr %7, align 4
  %40 = call noundef i32 @_ZNK9dtNavMesh19getTileAndPolyByRefEjPPK10dtMeshTilePPK6dtPoly(ptr noundef nonnull align 8 dereferenceable(100) %38, i32 noundef %39, ptr noundef %11, ptr noundef %12)
  %41 = call noundef zeroext i1 @_Z14dtStatusFailedj(i32 noundef %40)
  br i1 %41, label %42, label %43

42:                                               ; preds = %36
  store i32 -2147483640, ptr %5, align 4
  br label %141

43:                                               ; preds = %36
  %44 = load ptr, ptr %8, align 8
  %45 = icmp ne ptr %44, null
  br i1 %45, label %46, label %52

46:                                               ; preds = %43
  %47 = load ptr, ptr %8, align 8
  %48 = call noundef zeroext i1 @_Z11dtVisfinitePKf(ptr noundef %47)
  br i1 %48, label %49, label %52

49:                                               ; preds = %46
  %50 = load ptr, ptr %9, align 8
  %51 = icmp ne ptr %50, null
  br i1 %51, label %53, label %52

52:                                               ; preds = %49, %46, %43
  store i32 -2147483640, ptr %5, align 4
  br label %141

53:                                               ; preds = %49
  store i32 0, ptr %16, align 4
  store i32 0, ptr %17, align 4
  br label %54

54:                                               ; preds = %81, %53
  %55 = load i32, ptr %17, align 4
  %56 = load ptr, ptr %12, align 8
  %57 = getelementptr inbounds %struct.dtPoly, ptr %56, i32 0, i32 4
  %58 = load i8, ptr %57, align 2
  %59 = zext i8 %58 to i32
  %60 = icmp slt i32 %55, %59
  br i1 %60, label %61, label %84

61:                                               ; preds = %54
  %62 = load i32, ptr %16, align 4
  %63 = mul nsw i32 %62, 3
  %64 = sext i32 %63 to i64
  %65 = getelementptr inbounds [18 x float], ptr %13, i64 0, i64 %64
  %66 = load ptr, ptr %11, align 8
  %67 = getelementptr inbounds %struct.dtMeshTile, ptr %66, i32 0, i32 4
  %68 = load ptr, ptr %67, align 8
  %69 = load ptr, ptr %12, align 8
  %70 = getelementptr inbounds %struct.dtPoly, ptr %69, i32 0, i32 1
  %71 = load i32, ptr %17, align 4
  %72 = sext i32 %71 to i64
  %73 = getelementptr inbounds [6 x i16], ptr %70, i64 0, i64 %72
  %74 = load i16, ptr %73, align 2
  %75 = zext i16 %74 to i32
  %76 = mul nsw i32 %75, 3
  %77 = sext i32 %76 to i64
  %78 = getelementptr inbounds float, ptr %68, i64 %77
  call void @_Z7dtVcopyPfPKf(ptr noundef %65, ptr noundef %78)
  %79 = load i32, ptr %16, align 4
  %80 = add nsw i32 %79, 1
  store i32 %80, ptr %16, align 4
  br label %81

81:                                               ; preds = %61
  %82 = load i32, ptr %17, align 4
  %83 = add nsw i32 %82, 1
  store i32 %83, ptr %17, align 4
  br label %54, !llvm.loop !18

84:                                               ; preds = %54
  %85 = load ptr, ptr %8, align 8
  %86 = getelementptr inbounds [18 x float], ptr %13, i64 0, i64 0
  %87 = load i32, ptr %16, align 4
  %88 = getelementptr inbounds [6 x float], ptr %14, i64 0, i64 0
  %89 = getelementptr inbounds [6 x float], ptr %15, i64 0, i64 0
  %90 = call noundef zeroext i1 @_Z24dtDistancePtPolyEdgesSqrPKfS0_iPfS1_(ptr noundef %85, ptr noundef %86, i32 noundef %87, ptr noundef %88, ptr noundef %89)
  %91 = zext i1 %90 to i8
  store i8 %91, ptr %18, align 1
  %92 = load i8, ptr %18, align 1
  %93 = trunc i8 %92 to i1
  br i1 %93, label %94, label %97

94:                                               ; preds = %84
  %95 = load ptr, ptr %9, align 8
  %96 = load ptr, ptr %8, align 8
  call void @_Z7dtVcopyPfPKf(ptr noundef %95, ptr noundef %96)
  br label %140

97:                                               ; preds = %84
  %98 = getelementptr inbounds [6 x float], ptr %14, i64 0, i64 0
  %99 = load float, ptr %98, align 16
  store float %99, ptr %19, align 4
  store i32 0, ptr %20, align 4
  store i32 1, ptr %21, align 4
  br label %100

100:                                              ; preds = %118, %97
  %101 = load i32, ptr %21, align 4
  %102 = load i32, ptr %16, align 4
  %103 = icmp slt i32 %101, %102
  br i1 %103, label %104, label %121

104:                                              ; preds = %100
  %105 = load i32, ptr %21, align 4
  %106 = sext i32 %105 to i64
  %107 = getelementptr inbounds [6 x float], ptr %14, i64 0, i64 %106
  %108 = load float, ptr %107, align 4
  %109 = load float, ptr %19, align 4
  %110 = fcmp olt float %108, %109
  br i1 %110, label %111, label %117

111:                                              ; preds = %104
  %112 = load i32, ptr %21, align 4
  %113 = sext i32 %112 to i64
  %114 = getelementptr inbounds [6 x float], ptr %14, i64 0, i64 %113
  %115 = load float, ptr %114, align 4
  store float %115, ptr %19, align 4
  %116 = load i32, ptr %21, align 4
  store i32 %116, ptr %20, align 4
  br label %117

117:                                              ; preds = %111, %104
  br label %118

118:                                              ; preds = %117
  %119 = load i32, ptr %21, align 4
  %120 = add nsw i32 %119, 1
  store i32 %120, ptr %21, align 4
  br label %100, !llvm.loop !19

121:                                              ; preds = %100
  %122 = load i32, ptr %20, align 4
  %123 = mul nsw i32 %122, 3
  %124 = sext i32 %123 to i64
  %125 = getelementptr inbounds [18 x float], ptr %13, i64 0, i64 %124
  store ptr %125, ptr %22, align 8
  %126 = load i32, ptr %20, align 4
  %127 = add nsw i32 %126, 1
  %128 = load i32, ptr %16, align 4
  %129 = srem i32 %127, %128
  %130 = mul nsw i32 %129, 3
  %131 = sext i32 %130 to i64
  %132 = getelementptr inbounds [18 x float], ptr %13, i64 0, i64 %131
  store ptr %132, ptr %23, align 8
  %133 = load ptr, ptr %9, align 8
  %134 = load ptr, ptr %22, align 8
  %135 = load ptr, ptr %23, align 8
  %136 = load i32, ptr %20, align 4
  %137 = sext i32 %136 to i64
  %138 = getelementptr inbounds [6 x float], ptr %15, i64 0, i64 %137
  %139 = load float, ptr %138, align 4
  call void @_Z7dtVlerpPfPKfS1_f(ptr noundef %133, ptr noundef %134, ptr noundef %135, float noundef %139)
  br label %140

140:                                              ; preds = %121, %94
  store i32 1073741824, ptr %5, align 4
  br label %141

141:                                              ; preds = %140, %52, %42
  %142 = load i32, ptr %5, align 4
  ret i32 %142
}