; Function Attrs: mustprogress uwtable
define noundef i32 @_ZNK14dtNavMeshQuery26closestPointOnPolyBoundaryEjPKfPf(ptr nocapture noundef nonnull readonly align 8 dereferenceable(104) %0, i32 noundef %1, ptr noundef %2, ptr noundef writeonly %3) local_unnamed_addr #1 align 2 {
  %5 = alloca ptr, align 8
  %6 = alloca ptr, align 8
  %7 = alloca [18 x float], align 16
  %8 = alloca [6 x float], align 16
  %9 = alloca [6 x float], align 16
  %10 = tail call noundef ptr @_Z21dtAssertFailGetCustomv()
  %11 = icmp ne ptr %10, null
  %12 = load ptr, ptr %0, align 8
  %.not = icmp eq ptr %12, null
  %or.cond43 = select i1 %11, i1 %.not, i1 false
  br i1 %or.cond43, label %13, label %14

13:                                               ; preds = %4
  tail call void %10(ptr noundef nonnull @.str, ptr noundef nonnull @.str.1, i32 noundef 538)
  %.pre = load ptr, ptr %0, align 8
  br label %14

14:                                               ; preds = %13, %4
  %15 = phi ptr [ %.pre, %13 ], [ %12, %4 ]
  store ptr null, ptr %5, align 8
  store ptr null, ptr %6, align 8
  %16 = call noundef i32 @_ZNK9dtNavMesh19getTileAndPolyByRefEjPPK10dtMeshTilePPK6dtPoly(ptr noundef nonnull align 8 dereferenceable(100) %15, i32 noundef %1, ptr noundef nonnull %5, ptr noundef nonnull %6)
  %17 = icmp slt i32 %16, 0
  %.not42 = icmp eq ptr %2, null
  %or.cond44 = or i1 %.not42, %17
  br i1 %or.cond44, label %_Z11dtVisfinitePKf.exit.thread, label %18

18:                                               ; preds = %14
  %19 = load float, ptr %2, align 4
  %20 = call float @llvm.fabs.f32(float %19)
  %21 = fcmp ueq float %20, 0x7FF0000000000000
  br i1 %21, label %_Z11dtVisfinitePKf.exit.thread, label %22

22:                                               ; preds = %18
  %23 = getelementptr inbounds i8, ptr %2, i64 4
  %24 = load float, ptr %23, align 4
  %25 = call float @llvm.fabs.f32(float %24)
  %26 = fcmp ueq float %25, 0x7FF0000000000000
  br i1 %26, label %_Z11dtVisfinitePKf.exit.thread, label %_Z11dtVisfinitePKf.exit

_Z11dtVisfinitePKf.exit:                          ; preds = %22
  %27 = getelementptr inbounds i8, ptr %2, i64 8
  %28 = load float, ptr %27, align 4
  %29 = call float @llvm.fabs.f32(float %28)
  %30 = fcmp one float %29, 0x7FF0000000000000
  %31 = icmp ne ptr %3, null
  %or.cond = and i1 %31, %30
  br i1 %or.cond, label %.preheader, label %_Z11dtVisfinitePKf.exit.thread

.preheader:                                       ; preds = %_Z11dtVisfinitePKf.exit
  %32 = load ptr, ptr %6, align 8
  %33 = getelementptr inbounds i8, ptr %32, i64 30
  %34 = load i8, ptr %33, align 2
  %.not55 = icmp eq i8 %34, 0
  br i1 %.not55, label %._crit_edge.thread, label %.lr.ph

.lr.ph:                                           ; preds = %.preheader
  %35 = load ptr, ptr %5, align 8
  %36 = getelementptr inbounds i8, ptr %35, i64 24
  %37 = getelementptr inbounds i8, ptr %32, i64 4
  %.pre62 = load ptr, ptr %36, align 8
  %38 = zext i8 %34 to i64
  br label %39

39:                                               ; preds = %.lr.ph, %39
  %indvars.iv = phi i64 [ 0, %.lr.ph ], [ %indvars.iv.next, %39 ]
  %40 = mul nuw nsw i64 %indvars.iv, 3
  %41 = getelementptr inbounds [18 x float], ptr %7, i64 0, i64 %40
  %42 = getelementptr inbounds [6 x i16], ptr %37, i64 0, i64 %indvars.iv
  %43 = load i16, ptr %42, align 2
  %44 = zext i16 %43 to i64
  %45 = mul nuw nsw i64 %44, 3
  %46 = getelementptr inbounds float, ptr %.pre62, i64 %45
  %47 = load float, ptr %46, align 4
  store float %47, ptr %41, align 4
  %48 = getelementptr inbounds i8, ptr %46, i64 4
  %49 = load float, ptr %48, align 4
  %50 = getelementptr inbounds i8, ptr %41, i64 4
  store float %49, ptr %50, align 4
  %51 = getelementptr inbounds i8, ptr %46, i64 8
  %52 = load float, ptr %51, align 4
  %53 = getelementptr inbounds i8, ptr %41, i64 8
  store float %52, ptr %53, align 4
  %indvars.iv.next = add nuw nsw i64 %indvars.iv, 1
  %54 = icmp ult i64 %indvars.iv.next, %38
  br i1 %54, label %39, label %._crit_edge, !llvm.loop !19

._crit_edge:                                      ; preds = %39
  %55 = trunc i64 %indvars.iv.next to i32
  %56 = call noundef zeroext i1 @_Z24dtDistancePtPolyEdgesSqrPKfS0_iPfS1_(ptr noundef nonnull %2, ptr noundef nonnull %7, i32 noundef %55, ptr noundef nonnull %8, ptr noundef nonnull %9)
  br i1 %56, label %58, label %63

._crit_edge.thread:                               ; preds = %.preheader
  %57 = call noundef zeroext i1 @_Z24dtDistancePtPolyEdgesSqrPKfS0_iPfS1_(ptr noundef nonnull %2, ptr noundef nonnull %7, i32 noundef 0, ptr noundef nonnull %8, ptr noundef nonnull %9)
  br i1 %57, label %58, label %._crit_edge53

58:                                               ; preds = %._crit_edge.thread, %._crit_edge
  %59 = load float, ptr %2, align 4
  store float %59, ptr %3, align 4
  %60 = load float, ptr %23, align 4
  %61 = getelementptr inbounds i8, ptr %3, i64 4
  store float %60, ptr %61, align 4
  %62 = load float, ptr %27, align 4
  br label %_Z11dtVisfinitePKf.exit.thread.sink.split

63:                                               ; preds = %._crit_edge
  %64 = icmp ugt i32 %55, 1
  br i1 %64, label %.lr.ph52.preheader, label %._crit_edge53

.lr.ph52.preheader:                               ; preds = %63
  %65 = load float, ptr %8, align 16
  %wide.trip.count = and i64 %indvars.iv.next, 4294967295
  br label %.lr.ph52

.lr.ph52:                                         ; preds = %.lr.ph52.preheader, %.lr.ph52
  %indvars.iv59 = phi i64 [ 1, %.lr.ph52.preheader ], [ %indvars.iv.next60, %.lr.ph52 ]
  %.03449 = phi i32 [ 0, %.lr.ph52.preheader ], [ %.1, %.lr.ph52 ]
  %.03548 = phi float [ %65, %.lr.ph52.preheader ], [ %.136, %.lr.ph52 ]
  %66 = getelementptr inbounds [6 x float], ptr %8, i64 0, i64 %indvars.iv59
  %67 = load float, ptr %66, align 4
  %68 = fcmp olt float %67, %.03548
  %.136 = select i1 %68, float %67, float %.03548
  %69 = trunc i64 %indvars.iv59 to i32
  %.1 = select i1 %68, i32 %69, i32 %.03449
  %indvars.iv.next60 = add nuw nsw i64 %indvars.iv59, 1
  %exitcond.not = icmp eq i64 %indvars.iv.next60, %wide.trip.count
  br i1 %exitcond.not, label %._crit_edge53, label %.lr.ph52, !llvm.loop !20

._crit_edge53:                                    ; preds = %.lr.ph52, %._crit_edge.thread, %63
  %.032.lcssa6466 = phi i32 [ 1, %63 ], [ 0, %._crit_edge.thread ], [ %55, %.lr.ph52 ]
  %.034.lcssa = phi i32 [ 0, %63 ], [ 0, %._crit_edge.thread ], [ %.1, %.lr.ph52 ]
  %70 = mul nsw i32 %.034.lcssa, 3
  %71 = sext i32 %70 to i64
  %72 = getelementptr inbounds [18 x float], ptr %7, i64 0, i64 %71
  %73 = add nsw i32 %.034.lcssa, 1
  %74 = srem i32 %73, %.032.lcssa6466
  %75 = mul nsw i32 %74, 3
  %76 = sext i32 %75 to i64
  %77 = getelementptr inbounds [18 x float], ptr %7, i64 0, i64 %76
  %78 = sext i32 %.034.lcssa to i64
  %79 = getelementptr inbounds [6 x float], ptr %9, i64 0, i64 %78
  %80 = load float, ptr %79, align 4
  %81 = load <2 x float>, ptr %72, align 4
  %82 = load <2 x float>, ptr %77, align 4
  %83 = fsub <2 x float> %82, %81
  %84 = insertelement <2 x float> poison, float %80, i64 0
  %85 = shufflevector <2 x float> %84, <2 x float> poison, <2 x i32> zeroinitializer
  %86 = call <2 x float> @llvm.fmuladd.v2f32(<2 x float> %83, <2 x float> %85, <2 x float> %81)
  store <2 x float> %86, ptr %3, align 4
  %87 = getelementptr inbounds i8, ptr %72, i64 8
  %88 = load float, ptr %87, align 4
  %89 = getelementptr inbounds i8, ptr %77, i64 8
  %90 = load float, ptr %89, align 4
  %91 = fsub float %90, %88
  %92 = call float @llvm.fmuladd.f32(float %91, float %80, float %88)
  br label %_Z11dtVisfinitePKf.exit.thread.sink.split

_Z11dtVisfinitePKf.exit.thread.sink.split:        ; preds = %._crit_edge53, %58
  %.sink = phi float [ %62, %58 ], [ %92, %._crit_edge53 ]
  %93 = getelementptr inbounds i8, ptr %3, i64 8
  store float %.sink, ptr %93, align 4
  br label %_Z11dtVisfinitePKf.exit.thread

_Z11dtVisfinitePKf.exit.thread:                   ; preds = %_Z11dtVisfinitePKf.exit.thread.sink.split, %18, %22, %_Z11dtVisfinitePKf.exit, %14
  %.0 = phi i32 [ -2147483640, %14 ], [ -2147483640, %_Z11dtVisfinitePKf.exit ], [ -2147483640, %22 ], [ -2147483640, %18 ], [ 1073741824, %_Z11dtVisfinitePKf.exit.thread.sink.split ]
  ret i32 %.0
}